; Function Attrs: nounwind uwtable
define ptr @l___private_Lean_Elab_GuardMsgs_0__Lean_Elab_Tactic_GuardMsgs_messageToStringWithoutPos___lambda__3___boxed(ptr noundef %0, ptr noundef %1, ptr noundef %2, ptr noundef %3) local_unnamed_addr #0 {
  %5 = load ptr, ptr @l___private_Lean_Elab_GuardMsgs_0__Lean_Elab_Tactic_GuardMsgs_messageToStringWithoutPos___lambda__3___closed__1, align 8, !tbaa !4
  %6 = tail call zeroext i8 @l_Lean_Message_isTrace(ptr noundef %0) #7
  %7 = icmp eq i8 %6, 0
  br i1 %7, label %8, label %l___private_Lean_Elab_GuardMsgs_0__Lean_Elab_Tactic_GuardMsgs_messageToStringWithoutPos___lambda__3.exit

8:                                                ; preds = %4
  %9 = getelementptr inbounds nuw i8, ptr %0, i64 49
  %10 = load i8, ptr %9, align 1, !tbaa !14
  %switch.selectcmp.i = icmp eq i8 %10, 1
  %switch.select.i = select i1 %switch.selectcmp.i, ptr @l___private_Lean_Elab_GuardMsgs_0__Lean_Elab_Tactic_GuardMsgs_messageToStringWithoutPos___lambda__3___closed__3, ptr @l___private_Lean_Elab_GuardMsgs_0__Lean_Elab_Tactic_GuardMsgs_messageToStringWithoutPos___lambda__3___closed__4
  %switch.selectcmp33.i = icmp eq i8 %10, 0
  %switch.select34.i = select i1 %switch.selectcmp33.i, ptr @l___private_Lean_Elab_GuardMsgs_0__Lean_Elab_Tactic_GuardMsgs_messageToStringWithoutPos___lambda__3___closed__2, ptr %switch.select.i
  br label %l___private_Lean_Elab_GuardMsgs_0__Lean_Elab_Tactic_GuardMsgs_messageToStringWithoutPos___lambda__3.exit

l___private_Lean_Elab_GuardMsgs_0__Lean_Elab_Tactic_GuardMsgs_messageToStringWithoutPos___lambda__3.exit: ; preds = %4, %8
  %l___private_Lean_Elab_GuardMsgs_0__Lean_Elab_Tactic_GuardMsgs_messageToStringWithoutPos___lambda__3___closed__2.sink.i = phi ptr [ %switch.select34.i, %8 ], [ @l___private_Lean_Elab_GuardMsgs_0__Lean_Elab_Tactic_GuardMsgs_messageToStringWithoutPos___lambda__3___closed__5, %4 ]
  %11 = load ptr, ptr %l___private_Lean_Elab_GuardMsgs_0__Lean_Elab_Tactic_GuardMsgs_messageToStringWithoutPos___lambda__3___closed__2.sink.i, align 8, !tbaa !4
  %12 = tail call ptr @lean_string_append(ptr noundef %11, ptr noundef %1) #7
  %13 = tail call ptr @lean_apply_3(ptr noundef %5, ptr noundef %12, ptr noundef nonnull inttoptr (i64 1 to ptr), ptr noundef %3) #7
  %14 = ptrtoint ptr %2 to i64
  %15 = and i64 %14, 1
  %.not = icmp eq i64 %15, 0
  br i1 %.not, label %16, label %lean_dec.exit9

16:                                               ; preds = %l___private_Lean_Elab_GuardMsgs_0__Lean_Elab_Tactic_GuardMsgs_messageToStringWithoutPos___lambda__3.exit
  %17 = load i32, ptr %2, align 4, !tbaa !8
  %18 = icmp sgt i32 %17, 1
  br i1 %18, label %19, label %21, !prof !13

19:                                               ; preds = %16
  %20 = add nsw i32 %17, -1
  store i32 %20, ptr %2, align 4, !tbaa !8
  br label %lean_dec.exit9

21:                                               ; preds = %16
  %.not.i = icmp eq i32 %17, 0
  br i1 %.not.i, label %lean_dec.exit9, label %22

22:                                               ; preds = %21
  tail call void @lean_dec_ref_cold(ptr noundef nonnull %2) #7
  br label %lean_dec.exit9

lean_dec.exit9:                                   ; preds = %22, %21, %19, %l___private_Lean_Elab_GuardMsgs_0__Lean_Elab_Tactic_GuardMsgs_messageToStringWithoutPos___lambda__3.exit
  %23 = ptrtoint ptr %1 to i64
  %24 = and i64 %23, 1
  %.not14 = icmp eq i64 %24, 0
  br i1 %.not14, label %25, label %lean_dec.exit8

25:                                               ; preds = %lean_dec.exit9
  %26 = load i32, ptr %1, align 4, !tbaa !8
  %27 = icmp sgt i32 %26, 1
  br i1 %27, label %28, label %30, !prof !13

28:                                               ; preds = %25
  %29 = add nsw i32 %26, -1
  store i32 %29, ptr %1, align 4, !tbaa !8
  br label %lean_dec.exit8

30:                                               ; preds = %25
  %.not.i10 = icmp eq i32 %26, 0
  br i1 %.not.i10, label %lean_dec.exit8, label %31

31:                                               ; preds = %30
  tail call void @lean_dec_ref_cold(ptr noundef nonnull %1) #7
  br label %lean_dec.exit8

lean_dec.exit8:                                   ; preds = %31, %30, %28, %lean_dec.exit9
  %32 = ptrtoint ptr %0 to i64
  %33 = and i64 %32, 1
  %.not15 = icmp eq i64 %33, 0
  br i1 %.not15, label %34, label %lean_dec.exit

34:                                               ; preds = %lean_dec.exit8
  %35 = load i32, ptr %0, align 4, !tbaa !8
  %36 = icmp sgt i32 %35, 1
  br i1 %36, label %37, label %39, !prof !13

37:                                               ; preds = %34
  %38 = add nsw i32 %35, -1
  store i32 %38, ptr %0, align 4, !tbaa !8
  br label %lean_dec.exit

39:                                               ; preds = %34
  %.not.i12 = icmp eq i32 %35, 0
  br i1 %.not.i12, label %lean_dec.exit, label %40

40:                                               ; preds = %39
  tail call void @lean_dec_ref_cold(ptr noundef nonnull %0) #7
  br label %lean_dec.exit

lean_dec.exit:                                    ; preds = %40, %39, %37, %lean_dec.exit8
  ret ptr %13
}